; Function Attrs: nofree nounwind uwtable
define void @error_msg(ptr noundef readonly captures(none) %0, ...) local_unnamed_addr #0 {
  %2 = alloca [1 x %struct.__va_list_tag], align 16
  call void @llvm.va_start.p0(ptr nonnull %2)
  %3 = load ptr, ptr @rawattrstream, align 8
  %.not = icmp eq ptr %3, null
  br i1 %.not, label %6, label %4

4:                                                ; preds = %1
  %5 = call i32 @fflush(ptr noundef nonnull %3)
  br label %6

6:                                                ; preds = %4, %1
  %7 = load ptr, ptr @rawdatastream, align 8
  %.not3 = icmp eq ptr %7, null
  br i1 %.not3, label %10, label %8

8:                                                ; preds = %6
  %9 = call i32 @fflush(ptr noundef nonnull %7)
  br label %10

10:                                               ; preds = %8, %6
  %11 = load ptr, ptr @rawoutstream, align 8
  %.not4 = icmp eq ptr %11, null
  br i1 %.not4, label %14, label %12

12:                                               ; preds = %10
  %13 = call i32 @fflush(ptr noundef nonnull %11)
  br label %14

14:                                               ; preds = %12, %10
  %15 = load ptr, ptr @rawerrorstream, align 8
  %16 = load ptr, ptr @h5tools_progname, align 8
  %17 = call i32 (ptr, ptr, ...) @fprintf(ptr noundef %15, ptr noundef nonnull @.str.1, ptr noundef %16) #23
  %18 = load ptr, ptr @rawerrorstream, align 8
  %19 = call i32 @vfprintf(ptr noundef %18, ptr noundef %0, ptr noundef nonnull %2) #23
  call void @llvm.va_end.p0(ptr nonnull %2)
  ret void
}